
drivers/hwmon/nzxt-kraken2.ko:     file format elf64-x86-64


Disassembly of section .text:

0000000000000020 <kraken2_is_visible>:
  20:	b8 24 01 00 00       	mov    eax,0x124
  25:	c3                   	ret    
  26:	66 2e 0f 1f 84 00 00 	cs nop WORD PTR [rax+rax*1+0x0]
  2d:	00 00 00 

0000000000000030 <kraken2_read>:
  30:	48 8b 57 78          	mov    rdx,QWORD PTR [rdi+0x78]
  34:	48 8b 3d 00 00 00 00 	mov    rdi,QWORD PTR [rip+0x0]        # 3b <kraken2_read+0xb>
  3b:	b8 d0 07 00 00       	mov    eax,0x7d0
  40:	48 29 f8             	sub    rax,rdi
  43:	48 03 42 18          	add    rax,QWORD PTR [rdx+0x18]
  47:	78 2c                	js     75 <kraken2_read+0x45>
  49:	83 fe 01             	cmp    esi,0x1
  4c:	74 19                	je     67 <kraken2_read+0x37>
  4e:	83 fe 07             	cmp    esi,0x7
  51:	74 06                	je     59 <kraken2_read+0x29>
  53:	b8 a1 ff ff ff       	mov    eax,0xffffffa1
  58:	c3                   	ret    
hwmon_fan:
  59:	48 63 c9             	movsxd rcx,ecx
  5c:	0f b7 44 4a 14       	movzx  eax,WORD PTR [rdx+rcx*2+0x14]
  61:	49 89 00             	mov    QWORD PTR [r8],rax
  64:	31 c0                	xor    eax,eax
  66:	c3                   	ret    
hwmon_temp:
  67:	48 63 c9             	movsxd rcx,ecx
  6a:	48 63 44 8a 10       	movsxd rax,DWORD PTR [rdx+rcx*4+0x10]
  6f:	49 89 00             	mov    QWORD PTR [r8],rax
  72:	31 c0                	xor    eax,eax
  74:	c3                   	ret    
  75:	b8 c3 ff ff ff       	mov    eax,0xffffffc3
  7a:	c3                   	ret    
  7b:	0f 1f 44 00 00       	nop    DWORD PTR [rax+rax*1+0x0]

0000000000000080 <kraken2_read_string>:
  80:	83 fe 01             	cmp    esi,0x1
  83:	74 1c                	je     a1 <kraken2_read_string+0x21>
  85:	83 fe 07             	cmp    esi,0x7
  88:	75 11                	jne    9b <kraken2_read_string+0x1b>
  8a:	48 63 c9             	movsxd rcx,ecx
  8d:	48 8b 04 cd 00 00 00 	mov    rax,QWORD PTR [rcx*8+0x0]
  94:	00 
  95:	49 89 00             	mov    QWORD PTR [r8],rax
  98:	31 c0                	xor    eax,eax
  9a:	c3                   	ret    
  9b:	b8 a1 ff ff ff       	mov    eax,0xffffffa1
  a0:	c3                   	ret    
  a1:	49 c7 00 00 00 00 00 	mov    QWORD PTR [r8],0x0
  a8:	31 c0                	xor    eax,eax
  aa:	c3                   	ret    
  ab:	0f 1f 44 00 00       	nop    DWORD PTR [rax+rax*1+0x0]

00000000000000b0 <kraken2_remove>:
  b0:	55                   	push   rbp
  b1:	48 8b 87 48 19 00 00 	mov    rax,QWORD PTR [rdi+0x1948]
  b8:	48 89 fd             	mov    rbp,rdi
  bb:	48 8b 78 08          	mov    rdi,QWORD PTR [rax+0x8]
  bf:	e8 00 00 00 00       	call   c4 <kraken2_remove+0x14>
  c4:	48 89 ef             	mov    rdi,rbp
  c7:	e8 00 00 00 00       	call   cc <kraken2_remove+0x1c>
  cc:	48 89 ef             	mov    rdi,rbp
  cf:	5d                   	pop    rbp
  d0:	e9 00 00 00 00       	jmp    d5 <kraken2_remove+0x25>
  d5:	66 66 2e 0f 1f 84 00 	data16 cs nop WORD PTR [rax+rax*1+0x0]
  dc:	00 00 00 00 

00000000000000e0 <kraken2_probe>:
  e0:	41 55                	push   r13
  e2:	4c 8d af d0 18 00 00 	lea    r13,[rdi+0x18d0]
  e9:	ba c0 0d 00 00       	mov    edx,0xdc0
  ee:	be 20 00 00 00       	mov    esi,0x20
  f3:	41 54                	push   r12
  f5:	55                   	push   rbp
  f6:	48 89 fd             	mov    rbp,rdi
  f9:	4c 89 ef             	mov    rdi,r13
  fc:	53                   	push   rbx
  fd:	e8 00 00 00 00       	call   102 <kraken2_probe+0x22>
 102:	48 85 c0             	test   rax,rax
 105:	0f 84 92 00 00 00    	je     19d <kraken2_probe+0xbd>
 10b:	48 89 28             	mov    QWORD PTR [rax],rbp
 10e:	48 89 c3             	mov    rbx,rax
 111:	48 89 ef             	mov    rdi,rbp
 114:	48 89 85 48 19 00 00 	mov    QWORD PTR [rbp+0x1948],rax
 11b:	48 8b 05 00 00 00 00 	mov    rax,QWORD PTR [rip+0x0]        # 122 <kraken2_probe+0x42>
 122:	48 2d d0 07 00 00    	sub    rax,0x7d0
 128:	48 89 43 18          	mov    QWORD PTR [rbx+0x18],rax
 12c:	e8 00 00 00 00       	call   131 <kraken2_probe+0x51>
 131:	41 89 c4             	mov    r12d,eax
 134:	85 c0                	test   eax,eax
 136:	0f 85 00 00 00 00    	jne    13c <kraken2_probe+0x5c>
 13c:	be 04 00 00 00       	mov    esi,0x4
 141:	48 89 ef             	mov    rdi,rbp
 144:	e8 00 00 00 00       	call   149 <kraken2_probe+0x69>
 149:	41 89 c4             	mov    r12d,eax
 14c:	85 c0                	test   eax,eax
 14e:	0f 85 00 00 00 00    	jne    154 <kraken2_probe+0x74>
 154:	48 89 ef             	mov    rdi,rbp
 157:	e8 00 00 00 00       	call   15c <kraken2_probe+0x7c>
 15c:	41 89 c4             	mov    r12d,eax
 15f:	85 c0                	test   eax,eax
 161:	0f 85 00 00 00 00    	jne    167 <kraken2_probe+0x87>
 167:	45 31 c0             	xor    r8d,r8d
 16a:	48 c7 c1 00 00 00 00 	mov    rcx,0x0
 171:	48 89 da             	mov    rdx,rbx
 174:	4c 89 ef             	mov    rdi,r13
 177:	48 c7 c6 00 00 00 00 	mov    rsi,0x0
 17e:	e8 00 00 00 00       	call   183 <kraken2_probe+0xa3>
 183:	48 89 43 08          	mov    QWORD PTR [rbx+0x8],rax
 187:	48 3d 00 f0 ff ff    	cmp    rax,0xfffffffffffff000
 18d:	0f 87 00 00 00 00    	ja     193 <kraken2_probe+0xb3>
 193:	5b                   	pop    rbx
 194:	44 89 e0             	mov    eax,r12d
 197:	5d                   	pop    rbp
 198:	41 5c                	pop    r12
 19a:	41 5d                	pop    r13
 19c:	c3                   	ret    
 19d:	41 bc f4 ff ff ff    	mov    r12d,0xfffffff4
 1a3:	eb ee                	jmp    193 <kraken2_probe+0xb3>
 1a5:	66 66 2e 0f 1f 84 00 	data16 cs nop WORD PTR [rax+rax*1+0x0]
 1ac:	00 00 00 00 

00000000000001b0 <kraken2_raw_event>:
 1b0:	83 f9 06             	cmp    ecx,0x6
 1b3:	7e 06                	jle    1bb <kraken2_raw_event+0xb>
 1b5:	83 7e 20 04          	cmp    DWORD PTR [rsi+0x20],0x4
 1b9:	74 03                	je     1be <kraken2_raw_event+0xe>
 1bb:	31 c0                	xor    eax,eax
 1bd:	c3                   	ret    
 1be:	0f b6 42 01          	movzx  eax,BYTE PTR [rdx+0x1]
 1c2:	0f b6 72 02          	movzx  esi,BYTE PTR [rdx+0x2]
 1c6:	48 8b 8f 48 19 00 00 	mov    rcx,QWORD PTR [rdi+0x1948]
 1cd:	69 c0 e8 03 00 00    	imul   eax,eax,0x3e8
 1d3:	6b f6 64             	imul   esi,esi,0x64
 1d6:	01 f0                	add    eax,esi
 1d8:	89 41 10             	mov    DWORD PTR [rcx+0x10],eax
 1db:	0f b7 42 03          	movzx  eax,WORD PTR [rdx+0x3]
 1df:	66 c1 c0 08          	rol    ax,0x8
 1e3:	66 89 41 14          	mov    WORD PTR [rcx+0x14],ax
 1e7:	0f b7 42 05          	movzx  eax,WORD PTR [rdx+0x5]
 1eb:	66 c1 c0 08          	rol    ax,0x8
 1ef:	66 89 41 16          	mov    WORD PTR [rcx+0x16],ax
 1f3:	48 8b 05 00 00 00 00 	mov    rax,QWORD PTR [rip+0x0]        # 1fa <kraken2_raw_event+0x4a>
 1fa:	48 89 41 18          	mov    QWORD PTR [rcx+0x18],rax
 1fe:	31 c0                	xor    eax,eax
 200:	c3                   	ret    

0000000000000201 <kraken2_probe.cold>:
 201:	89 c2                	mov    edx,eax
 203:	48 c7 c6 00 00 00 00 	mov    rsi,0x0
 20a:	4c 89 ef             	mov    rdi,r13
 20d:	41 89 c4             	mov    r12d,eax
 210:	e8 00 00 00 00       	call   215 <kraken2_probe.cold+0x14>
 215:	48 89 ef             	mov    rdi,rbp
 218:	e8 00 00 00 00       	call   21d <kraken2_probe.cold+0x1c>
 21d:	48 89 ef             	mov    rdi,rbp
 220:	e8 00 00 00 00       	call   225 <kraken2_probe.cold+0x24>
 225:	e9 00 00 00 00       	jmp    22a <kraken2_probe.cold+0x29>
 22a:	89 c2                	mov    edx,eax
 22c:	48 c7 c6 00 00 00 00 	mov    rsi,0x0
 233:	4c 89 ef             	mov    rdi,r13
 236:	e8 00 00 00 00       	call   23b <kraken2_probe.cold+0x3a>
 23b:	eb d8                	jmp    215 <kraken2_probe.cold+0x14>
 23d:	89 c2                	mov    edx,eax
 23f:	48 c7 c6 00 00 00 00 	mov    rsi,0x0
 246:	4c 89 ef             	mov    rdi,r13
 249:	e8 00 00 00 00       	call   24e <kraken2_probe.cold+0x4d>
 24e:	eb cd                	jmp    21d <kraken2_probe.cold+0x1c>
 250:	89 c2                	mov    edx,eax
 252:	48 c7 c6 00 00 00 00 	mov    rsi,0x0
 259:	4c 89 ef             	mov    rdi,r13
 25c:	e8 00 00 00 00       	call   261 <kraken2_probe.cold+0x60>
 261:	e9 00 00 00 00       	jmp    266 <kraken2_probe.cold+0x65>

Disassembly of section .init.text:

0000000000000000 <init_module>:
   0:	48 c7 c2 00 00 00 00 	mov    rdx,0x0
   7:	48 c7 c6 00 00 00 00 	mov    rsi,0x0
   e:	48 c7 c7 00 00 00 00 	mov    rdi,0x0
  15:	e9 00 00 00 00       	jmp    1a <init_module+0x1a>

Disassembly of section .exit.text:

0000000000000000 <cleanup_module>:
   0:	48 c7 c7 00 00 00 00 	mov    rdi,0x0
   7:	e9 00 00 00 00       	jmp    c <cleanup_module+0xc>
